target datalayout = "e-m:e-p270:32:32-p271:32:32-p272:64:64-i64:64-i128:128-f80:128-n8:16:32:64-S128"
target triple = "x86_64-pc-linux-gnu"

%struct.XErrorEvent = type { i32, ptr, i64, i64, i8, i8, i8 }

@stderr = external global ptr, align 8
@.str.1 = private unnamed_addr constant [28 x i8] c"Xerror %s, XID %x, ser# %d\0A\00", align 1
@.str.2 = private unnamed_addr constant [3 x i8] c"%d\00", align 1
@.str.3 = private unnamed_addr constant [9 x i8] c"XRequest\00", align 1
@.str.4 = private unnamed_addr constant [8 x i8] c"Unknown\00", align 1
@.str.5 = private unnamed_addr constant [22 x i8] c"Major opcode %d (%s)\0A\00", align 1
@.str.6 = private unnamed_addr constant [17 x i8] c"Minor opcode %d\0A\00", align 1

; Function Attrs: nounwind uwtable
define void @Java_sun_awt_X11_XlibWrapper_PrintXErrorEvent(ptr noundef %0, ptr noundef %1, i64 noundef %2, i64 noundef %3) #0 {
  %5 = alloca ptr, align 8
  %6 = alloca ptr, align 8
  %7 = alloca i64, align 8
  %8 = alloca i64, align 8
  %9 = alloca [128 x i8], align 16
  %10 = alloca [128 x i8], align 16
  %11 = alloca ptr, align 8
  store ptr %0, ptr %5, align 8
  store ptr %1, ptr %6, align 8
  store i64 %2, ptr %7, align 8
  store i64 %3, ptr %8, align 8
  %12 = load i64, ptr %8, align 8
  %13 = inttoptr i64 %12 to ptr
  store ptr %13, ptr %11, align 8
  %14 = load i64, ptr %7, align 8
  %15 = inttoptr i64 %14 to ptr
  %16 = load ptr, ptr %11, align 8
  %17 = getelementptr inbounds %struct.XErrorEvent, ptr %16, i32 0, i32 4
  %18 = load i8, ptr %17, align 8
  %19 = zext i8 %18 to i32
  %20 = getelementptr inbounds [128 x i8], ptr %9, i64 0, i64 0
  %21 = call i32 @XGetErrorText(ptr noundef %15, i32 noundef %19, ptr noundef %20, i32 noundef 128)
  %22 = load ptr, ptr @stderr, align 8
  %23 = getelementptr inbounds [128 x i8], ptr %9, i64 0, i64 0
  %24 = load ptr, ptr %11, align 8
  %25 = getelementptr inbounds %struct.XErrorEvent, ptr %24, i32 0, i32 2
  %26 = load i64, ptr %25, align 8
  %27 = load ptr, ptr %11, align 8
  %28 = getelementptr inbounds %struct.XErrorEvent, ptr %27, i32 0, i32 3
  %29 = load i64, ptr %28, align 8
  %30 = call i32 (ptr, ptr, ...) @jio_fprintf(ptr noundef %22, ptr noundef @.str.1, ptr noundef %23, i64 noundef %26, i64 noundef %29)
  %31 = getelementptr inbounds [128 x i8], ptr %10, i64 0, i64 0
  %32 = load ptr, ptr %11, align 8
  %33 = getelementptr inbounds %struct.XErrorEvent, ptr %32, i32 0, i32 5
  %34 = load i8, ptr %33, align 1
  %35 = zext i8 %34 to i32
  %36 = call i32 (ptr, i64, ptr, ...) @jio_snprintf(ptr noundef %31, i64 noundef 128, ptr noundef @.str.2, i32 noundef %35)
  %37 = load i64, ptr %7, align 8
  %38 = inttoptr i64 %37 to ptr
  %39 = getelementptr inbounds [128 x i8], ptr %10, i64 0, i64 0
  %40 = getelementptr inbounds [128 x i8], ptr %9, i64 0, i64 0
  %41 = call i32 @XGetErrorDatabaseText(ptr noundef %38, ptr noundef @.str.3, ptr noundef %39, ptr noundef @.str.4, ptr noundef %40, i32 noundef 128)
  %42 = load ptr, ptr @stderr, align 8
  %43 = load ptr, ptr %11, align 8
  %44 = getelementptr inbounds %struct.XErrorEvent, ptr %43, i32 0, i32 5
  %45 = load i8, ptr %44, align 1
  %46 = zext i8 %45 to i32
  %47 = getelementptr inbounds [128 x i8], ptr %9, i64 0, i64 0
  %48 = call i32 (ptr, ptr, ...) @jio_fprintf(ptr noundef %42, ptr noundef @.str.5, i32 noundef %46, ptr noundef %47)
  %49 = load ptr, ptr %11, align 8
  %50 = getelementptr inbounds %struct.XErrorEvent, ptr %49, i32 0, i32 5
  %51 = load i8, ptr %50, align 1
  %52 = zext i8 %51 to i32
  %53 = icmp sgt i32 %52, 128
  br i1 %53, label %54, label %61

54:                                               ; preds = %4
  %55 = load ptr, ptr @stderr, align 8
  %56 = load ptr, ptr %11, align 8
  %57 = getelementptr inbounds %struct.XErrorEvent, ptr %56, i32 0, i32 6
  %58 = load i8, ptr %57, align 2
  %59 = zext i8 %58 to i32
  %60 = call i32 (ptr, ptr, ...) @jio_fprintf(ptr noundef %55, ptr noundef @.str.6, i32 noundef %59)
  br label %61

61:                                               ; preds = %54, %4
  ret void
}