; Function Attrs: nounwind uwtable
define void @Java_sun_awt_X11_XlibWrapper_PrintXErrorEvent(ptr nocapture noundef readnone %0, ptr nocapture noundef readnone %1, i64 noundef %2, i64 noundef %3) local_unnamed_addr #0 {
  %5 = alloca [128 x i8], align 16
  %6 = alloca [128 x i8], align 16
  %7 = inttoptr i64 %3 to ptr
  %8 = inttoptr i64 %2 to ptr
  %9 = getelementptr inbounds i8, ptr %7, i64 32
  %10 = load i8, ptr %9, align 8
  %11 = zext i8 %10 to i32
  %12 = call i32 @XGetErrorText(ptr noundef %8, i32 noundef %11, ptr noundef nonnull %5, i32 noundef 128) #14
  %13 = load ptr, ptr @stderr, align 8
  %14 = getelementptr inbounds i8, ptr %7, i64 16
  %15 = load i64, ptr %14, align 8
  %16 = getelementptr inbounds i8, ptr %7, i64 24
  %17 = load i64, ptr %16, align 8
  %18 = call i32 (ptr, ptr, ...) @jio_fprintf(ptr noundef %13, ptr noundef nonnull @.str.1, ptr noundef nonnull %5, i64 noundef %15, i64 noundef %17) #14
  %19 = getelementptr inbounds i8, ptr %7, i64 33
  %20 = load i8, ptr %19, align 1
  %21 = zext i8 %20 to i32
  %22 = call i32 (ptr, i64, ptr, ...) @jio_snprintf(ptr noundef nonnull %6, i64 noundef 128, ptr noundef nonnull @.str.2, i32 noundef %21) #14
  %23 = call i32 @XGetErrorDatabaseText(ptr noundef %8, ptr noundef nonnull @.str.3, ptr noundef nonnull %6, ptr noundef nonnull @.str.4, ptr noundef nonnull %5, i32 noundef 128) #14
  %24 = load ptr, ptr @stderr, align 8
  %25 = load i8, ptr %19, align 1
  %26 = zext i8 %25 to i32
  %27 = call i32 (ptr, ptr, ...) @jio_fprintf(ptr noundef %24, ptr noundef nonnull @.str.5, i32 noundef %26, ptr noundef nonnull %5) #14
  %28 = load i8, ptr %19, align 1
  %29 = icmp ugt i8 %28, -128
  br i1 %29, label %30, label %36

30:                                               ; preds = %4
  %31 = load ptr, ptr @stderr, align 8
  %32 = getelementptr inbounds i8, ptr %7, i64 34
  %33 = load i8, ptr %32, align 2
  %34 = zext i8 %33 to i32
  %35 = call i32 (ptr, ptr, ...) @jio_fprintf(ptr noundef %31, ptr noundef nonnull @.str.6, i32 noundef %34) #14
  br label %36

36:                                               ; preds = %30, %4
  ret void
}